#include <math.h>
#include <stdio.h>
#include <stdlib.h>
#include <string.h>
#include <iostream>
using namespace std;

/*
???????????
?????? 1200012921
???2012.10.31
*/

int main()
{
	int n, k;                             //n:????????k???????
	int i, j, m, t, l, count = 0;         //i?j?m?t?l??????count??????????
	int a[100000] = {0};                  //??????0
	cin >> n;
	for (i = 0; i <= n - 1; i++)          //??????n???
	{
		cin >> a[i];
	}
	cin >> k;                             //????????k
	for (j = 0; j <= n - 1 - count; j++)  //????????a[j]???k
	{
		if (a[j] == k)                    //??a[j]=k
		{
			do                            //?a[j]?????????????a[j]
			{
				for (m = j; m <= n - 1 - count; m++)
				{
					a[m] = a[m + 1];
				}
				count++;                 //?????????1
			}
			while (a[j] == k);           //????a[j]??k??????
		}
	}
	cout << a[0];                         //a[0]?????????????
	for (t = 1; t <= n - 1 - count; t++)
		cout <<" " << a[t];               //??????a????????
	return 0;
}